; Function Attrs: nounwind uwtable
define internal ptr @sys_profile_unwind(ptr noundef readonly captures(none) %0, ptr readnone captures(none) %1, i64 %2, ptr readnone captures(none) %3) #0 {
  %5 = tail call align 8 ptr @llvm.threadlocal.address.p0(ptr align 8 @_Py_tss_tstate)
  %6 = load ptr, ptr %5, align 8, !tbaa !17
  %7 = getelementptr inbounds nuw i8, ptr %6, i64 80
  %8 = load ptr, ptr %7, align 8, !tbaa !103
  %9 = icmp eq ptr %8, null
  br i1 %9, label %call_profile_func.exit, label %10

10:                                               ; preds = %4
  %11 = tail call ptr @PyEval_GetFrame() #4
  %12 = icmp eq ptr %11, null
  br i1 %12, label %13, label %15

13:                                               ; preds = %10
  %14 = load ptr, ptr @PyExc_SystemError, align 8, !tbaa !111
  tail call void @PyErr_SetString(ptr noundef %14, ptr noundef nonnull @.str.3) #4
  br label %call_profile_func.exit

15:                                               ; preds = %10
  %16 = load i32, ptr %11, align 8, !tbaa !15
  %17 = icmp slt i32 %16, 0
  br i1 %17, label %Py_INCREF.exit.i, label %18

18:                                               ; preds = %15
  %19 = add nuw i32 %16, 1
  store i32 %19, ptr %11, align 8, !tbaa !15
  br label %Py_INCREF.exit.i

Py_INCREF.exit.i:                                 ; preds = %18, %15
  %20 = load ptr, ptr %7, align 8, !tbaa !103
  %21 = getelementptr inbounds nuw i8, ptr %6, i64 96
  %22 = load ptr, ptr %21, align 8, !tbaa !104
  %23 = getelementptr inbounds nuw i8, ptr %0, i64 24
  %24 = load i32, ptr %23, align 8, !tbaa !102
  %25 = tail call i32 %20(ptr noundef %22, ptr noundef nonnull %11, i32 noundef %24, ptr noundef null) #4
  %26 = load i32, ptr %11, align 8, !tbaa !15
  %.not.i.i = icmp sgt i32 %26, -1
  br i1 %.not.i.i, label %27, label %Py_DECREF.exit.i

27:                                               ; preds = %Py_INCREF.exit.i
  %28 = add nsw i32 %26, -1
  store i32 %28, ptr %11, align 8, !tbaa !15
  %29 = icmp eq i32 %28, 0
  br i1 %29, label %30, label %Py_DECREF.exit.i

30:                                               ; preds = %27
  tail call void @_Py_Dealloc(ptr noundef nonnull %11) #4
  br label %Py_DECREF.exit.i

Py_DECREF.exit.i:                                 ; preds = %30, %27, %Py_INCREF.exit.i
  %.not.i = icmp eq i32 %25, 0
  %_Py_NoneStruct..i = select i1 %.not.i, ptr @_Py_NoneStruct, ptr null
  br label %call_profile_func.exit

call_profile_func.exit:                           ; preds = %4, %13, %Py_DECREF.exit.i
  %.0.i = phi ptr [ @_Py_NoneStruct, %4 ], [ null, %13 ], [ %_Py_NoneStruct..i, %Py_DECREF.exit.i ]
  ret ptr %.0.i
}